target datalayout = "e-m:e-p270:32:32-p271:32:32-p272:64:64-i64:64-i128:128-f80:128-n8:16:32:64-S128"
target triple = "x86_64-pc-linux-gnu"

%class.anon = type { ptr, ptr, ptr, ptr, ptr, ptr, ptr, ptr, ptr }

; Function Attrs: inlinehint mustprogress ssp uwtable
define internal void @"_ZZN6open3d9pipelines8odometryL17DoSingleIterationEiiRKNS_8geometry9RGBDImageES5_RKNS2_5ImageES5_S5_N5Eigen6MatrixIdLi3ELi3ELi0ELi3ELi3EEERKNSA_IdLi4ELi4ELi0ELi4ELi4EEERKNS1_20RGBDOdometryJacobianERKNS1_14OdometryOptionEENK3$_0clEiRSt6vectorINSA_IdLi6ELi1ELi0ELi6ELi1EEENS9_17aligned_allocatorISN_EEERSM_IdSaIdEESU_"(ptr noundef nonnull align 8 dereferenceable(72) %0, i32 noundef %1, ptr noundef nonnull align 8 dereferenceable(24) %2, ptr noundef nonnull align 8 dereferenceable(24) %3, ptr noundef nonnull align 8 dereferenceable(24) %4) #4 align 2 {
  %6 = alloca ptr, align 8
  %7 = alloca i32, align 4
  %8 = alloca ptr, align 8
  %9 = alloca ptr, align 8
  %10 = alloca ptr, align 8
  store ptr %0, ptr %6, align 8, !tbaa !186
  store i32 %1, ptr %7, align 4, !tbaa !42
  store ptr %2, ptr %8, align 8, !tbaa !1990
  store ptr %3, ptr %9, align 8, !tbaa !1992
  store ptr %4, ptr %10, align 8, !tbaa !1992
  %11 = load ptr, ptr %6, align 8
  %12 = getelementptr inbounds nuw %class.anon, ptr %11, i32 0, i32 0
  %13 = load ptr, ptr %12, align 8, !tbaa !1997
  %14 = load i32, ptr %7, align 4, !tbaa !42
  %15 = load ptr, ptr %8, align 8, !tbaa !1990
  %16 = load ptr, ptr %9, align 8, !tbaa !1992
  %17 = load ptr, ptr %10, align 8, !tbaa !1992
  %18 = getelementptr inbounds nuw %class.anon, ptr %11, i32 0, i32 1
  %19 = load ptr, ptr %18, align 8, !tbaa !1999
  %20 = getelementptr inbounds nuw %class.anon, ptr %11, i32 0, i32 2
  %21 = load ptr, ptr %20, align 8, !tbaa !2000
  %22 = getelementptr inbounds nuw %class.anon, ptr %11, i32 0, i32 3
  %23 = load ptr, ptr %22, align 8, !tbaa !2001
  %24 = getelementptr inbounds nuw %class.anon, ptr %11, i32 0, i32 4
  %25 = load ptr, ptr %24, align 8, !tbaa !2002
  %26 = getelementptr inbounds nuw %class.anon, ptr %11, i32 0, i32 5
  %27 = load ptr, ptr %26, align 8, !tbaa !2003
  %28 = getelementptr inbounds nuw %class.anon, ptr %11, i32 0, i32 6
  %29 = load ptr, ptr %28, align 8, !tbaa !2004
  %30 = getelementptr inbounds nuw %class.anon, ptr %11, i32 0, i32 7
  %31 = load ptr, ptr %30, align 8, !tbaa !2005
  %32 = getelementptr inbounds nuw %class.anon, ptr %11, i32 0, i32 8
  %33 = load ptr, ptr %32, align 8, !tbaa !2006
  %34 = load ptr, ptr %13, align 8, !tbaa !65
  %35 = getelementptr inbounds ptr, ptr %34, i64 2
  %36 = load ptr, ptr %35, align 8
  call void %36(ptr noundef nonnull align 8 dereferenceable(8) %13, i32 noundef %14, ptr noundef nonnull align 8 dereferenceable(24) %15, ptr noundef nonnull align 8 dereferenceable(24) %16, ptr noundef nonnull align 8 dereferenceable(24) %17, ptr noundef nonnull align 8 dereferenceable(224) %19, ptr noundef nonnull align 8 dereferenceable(224) %21, ptr noundef nonnull align 8 dereferenceable(88) %23, ptr noundef nonnull align 8 dereferenceable(224) %25, ptr noundef nonnull align 8 dereferenceable(224) %27, ptr noundef nonnull align 8 dereferenceable(72) %29, ptr noundef nonnull align 16 dereferenceable(128) %31, ptr noundef nonnull align 8 dereferenceable(24) %33)
  ret void
}

; Function Attrs: mustprogress nounwind ssp uwtable
define linkonce_odr noundef ptr @_ZNKSt9_Any_data9_M_accessEv(ptr noundef nonnull align 8 dereferenceable(16) %0) #1 comdat align 2 {
  %2 = alloca ptr, align 8
  store ptr %0, ptr %2, align 8, !tbaa !1988
  %3 = load ptr, ptr %2, align 8
  %4 = getelementptr inbounds [16 x i8], ptr %3, i64 0, i64 0
  ret ptr %4
}

; Function Attrs: mustprogress ssp uwtable
define internal void @"_ZSt13__invoke_implIvRZN6open3d9pipelines8odometryL17DoSingleIterationEiiRKNS0_8geometry9RGBDImageES6_RKNS3_5ImageES6_S6_N5Eigen6MatrixIdLi3ELi3ELi0ELi3ELi3EEERKNSB_IdLi4ELi4ELi0ELi4ELi4EEERKNS2_20RGBDOdometryJacobianERKNS2_14OdometryOptionEE3$_0JiRSt6vectorINSB_IdLi6ELi1ELi0ELi6ELi1EEENSA_17aligned_allocatorISP_EEERSO_IdSaIdEESW_EET_St14__invoke_otherOT0_DpOT1_"(ptr noundef nonnull align 8 dereferenceable(72) %0, ptr noundef nonnull align 4 dereferenceable(4) %1, ptr noundef nonnull align 8 dereferenceable(24) %2, ptr noundef nonnull align 8 dereferenceable(24) %3, ptr noundef nonnull align 8 dereferenceable(24) %4) #3 {
  %6 = alloca ptr, align 8
  %7 = alloca ptr, align 8
  %8 = alloca ptr, align 8
  %9 = alloca ptr, align 8
  %10 = alloca ptr, align 8
  store ptr %0, ptr %6, align 8, !tbaa !186
  store ptr %1, ptr %7, align 8, !tbaa !79
  store ptr %2, ptr %8, align 8, !tbaa !1990
  store ptr %3, ptr %9, align 8, !tbaa !1992
  store ptr %4, ptr %10, align 8, !tbaa !1992
  %11 = load ptr, ptr %6, align 8, !tbaa !186
  %12 = load ptr, ptr %7, align 8, !tbaa !79
  %13 = load i32, ptr %12, align 4, !tbaa !42
  %14 = load ptr, ptr %8, align 8, !tbaa !1990
  %15 = load ptr, ptr %9, align 8, !tbaa !1992
  %16 = load ptr, ptr %10, align 8, !tbaa !1992
  call void @"_ZZN6open3d9pipelines8odometryL17DoSingleIterationEiiRKNS_8geometry9RGBDImageES5_RKNS2_5ImageES5_S5_N5Eigen6MatrixIdLi3ELi3ELi0ELi3ELi3EEERKNSA_IdLi4ELi4ELi0ELi4ELi4EEERKNS1_20RGBDOdometryJacobianERKNS1_14OdometryOptionEENK3$_0clEiRSt6vectorINSA_IdLi6ELi1ELi0ELi6ELi1EEENS9_17aligned_allocatorISN_EEERSM_IdSaIdEESU_"(ptr noundef nonnull align 8 dereferenceable(72) %11, i32 noundef %13, ptr noundef nonnull align 8 dereferenceable(24) %14, ptr noundef nonnull align 8 dereferenceable(24) %15, ptr noundef nonnull align 8 dereferenceable(24) %16)
  ret void
}

; Function Attrs: mustprogress nounwind ssp uwtable
define internal noundef nonnull align 8 dereferenceable(8) ptr @"_ZNKSt9_Any_data9_M_accessIPZN6open3d9pipelines8odometryL17DoSingleIterationEiiRKNS1_8geometry9RGBDImageES7_RKNS4_5ImageES7_S7_N5Eigen6MatrixIdLi3ELi3ELi0ELi3ELi3EEERKNSC_IdLi4ELi4ELi0ELi4ELi4EEERKNS3_20RGBDOdometryJacobianERKNS3_14OdometryOptionEE3$_0EERKT_v"(ptr noundef nonnull align 8 dereferenceable(16) %0) #1 align 2 {
  %2 = alloca ptr, align 8
  store ptr %0, ptr %2, align 8, !tbaa !1988
  %3 = load ptr, ptr %2, align 8
  %4 = call noundef ptr @_ZNKSt9_Any_data9_M_accessEv(ptr noundef nonnull align 8 dereferenceable(16) %3) #8
  ret ptr %4
}

; Function Attrs: mustprogress ssp uwtable
define internal void @"_ZSt10__invoke_rIvRZN6open3d9pipelines8odometryL17DoSingleIterationEiiRKNS0_8geometry9RGBDImageES6_RKNS3_5ImageES6_S6_N5Eigen6MatrixIdLi3ELi3ELi0ELi3ELi3EEERKNSB_IdLi4ELi4ELi0ELi4ELi4EEERKNS2_20RGBDOdometryJacobianERKNS2_14OdometryOptionEE3$_0JiRSt6vectorINSB_IdLi6ELi1ELi0ELi6ELi1EEENSA_17aligned_allocatorISP_EEERSO_IdSaIdEESW_EENSt9enable_ifIX16is_invocable_r_vIT_T0_DpT1_EESY_E4typeEOSZ_DpOS10_"(ptr noundef nonnull align 8 dereferenceable(72) %0, ptr noundef nonnull align 4 dereferenceable(4) %1, ptr noundef nonnull align 8 dereferenceable(24) %2, ptr noundef nonnull align 8 dereferenceable(24) %3, ptr noundef nonnull align 8 dereferenceable(24) %4) #3 {
  %6 = alloca ptr, align 8
  %7 = alloca ptr, align 8
  %8 = alloca ptr, align 8
  %9 = alloca ptr, align 8
  %10 = alloca ptr, align 8
  store ptr %0, ptr %6, align 8, !tbaa !186
  store ptr %1, ptr %7, align 8, !tbaa !79
  store ptr %2, ptr %8, align 8, !tbaa !1990
  store ptr %3, ptr %9, align 8, !tbaa !1992
  store ptr %4, ptr %10, align 8, !tbaa !1992
  %11 = load ptr, ptr %6, align 8, !tbaa !186
  %12 = load ptr, ptr %7, align 8, !tbaa !79
  %13 = load ptr, ptr %8, align 8, !tbaa !1990
  %14 = load ptr, ptr %9, align 8, !tbaa !1992
  %15 = load ptr, ptr %10, align 8, !tbaa !1992
  call void @"_ZSt13__invoke_implIvRZN6open3d9pipelines8odometryL17DoSingleIterationEiiRKNS0_8geometry9RGBDImageES6_RKNS3_5ImageES6_S6_N5Eigen6MatrixIdLi3ELi3ELi0ELi3ELi3EEERKNSB_IdLi4ELi4ELi0ELi4ELi4EEERKNS2_20RGBDOdometryJacobianERKNS2_14OdometryOptionEE3$_0JiRSt6vectorINSB_IdLi6ELi1ELi0ELi6ELi1EEENSA_17aligned_allocatorISP_EEERSO_IdSaIdEESW_EET_St14__invoke_otherOT0_DpOT1_"(ptr noundef nonnull align 8 dereferenceable(72) %11, ptr noundef nonnull align 4 dereferenceable(4) %12, ptr noundef nonnull align 8 dereferenceable(24) %13, ptr noundef nonnull align 8 dereferenceable(24) %14, ptr noundef nonnull align 8 dereferenceable(24) %15)
  ret void
}

; Function Attrs: mustprogress nounwind ssp uwtable
define internal noundef ptr @"_ZNSt14_Function_base13_Base_managerIZN6open3d9pipelines8odometryL17DoSingleIterationEiiRKNS1_8geometry9RGBDImageES7_RKNS4_5ImageES7_S7_N5Eigen6MatrixIdLi3ELi3ELi0ELi3ELi3EEERKNSC_IdLi4ELi4ELi0ELi4ELi4EEERKNS3_20RGBDOdometryJacobianERKNS3_14OdometryOptionEE3$_0E14_M_get_pointerERKSt9_Any_data"(ptr noundef nonnull align 8 dereferenceable(16) %0) #1 align 2 {
  %2 = alloca ptr, align 8
  store ptr %0, ptr %2, align 8, !tbaa !1988
  %3 = load ptr, ptr %2, align 8, !tbaa !1988
  %4 = call noundef nonnull align 8 dereferenceable(8) ptr @"_ZNKSt9_Any_data9_M_accessIPZN6open3d9pipelines8odometryL17DoSingleIterationEiiRKNS1_8geometry9RGBDImageES7_RKNS4_5ImageES7_S7_N5Eigen6MatrixIdLi3ELi3ELi0ELi3ELi3EEERKNSC_IdLi4ELi4ELi0ELi4ELi4EEERKNS3_20RGBDOdometryJacobianERKNS3_14OdometryOptionEE3$_0EERKT_v"(ptr noundef nonnull align 8 dereferenceable(16) %3) #8
  %5 = load ptr, ptr %4, align 8, !tbaa !186
  ret ptr %5
}

; Function Attrs: mustprogress ssp uwtable
define internal void @"_ZNSt17_Function_handlerIFviRSt6vectorIN5Eigen6MatrixIdLi6ELi1ELi0ELi6ELi1EEENS1_17aligned_allocatorIS3_EEERS0_IdSaIdEESA_EZN6open3d9pipelines8odometryL17DoSingleIterationEiiRKNSC_8geometry9RGBDImageESI_RKNSF_5ImageESI_SI_NS2_IdLi3ELi3ELi0ELi3ELi3EEERKNS2_IdLi4ELi4ELi0ELi4ELi4EEERKNSE_20RGBDOdometryJacobianERKNSE_14OdometryOptionEE3$_0E9_M_invokeERKSt9_Any_dataOiS7_SA_SA_"(ptr noundef nonnull align 8 dereferenceable(16) %0, ptr noundef nonnull align 4 dereferenceable(4) %1, ptr noundef nonnull align 8 dereferenceable(24) %2, ptr noundef nonnull align 8 dereferenceable(24) %3, ptr noundef nonnull align 8 dereferenceable(24) %4) #3 align 2 {
  %6 = alloca ptr, align 8
  %7 = alloca ptr, align 8
  %8 = alloca ptr, align 8
  %9 = alloca ptr, align 8
  %10 = alloca ptr, align 8
  store ptr %0, ptr %6, align 8, !tbaa !1988
  store ptr %1, ptr %7, align 8, !tbaa !79
  store ptr %2, ptr %8, align 8, !tbaa !1990
  store ptr %3, ptr %9, align 8, !tbaa !1992
  store ptr %4, ptr %10, align 8, !tbaa !1992
  %11 = load ptr, ptr %6, align 8, !tbaa !1988
  %12 = call noundef ptr @"_ZNSt14_Function_base13_Base_managerIZN6open3d9pipelines8odometryL17DoSingleIterationEiiRKNS1_8geometry9RGBDImageES7_RKNS4_5ImageES7_S7_N5Eigen6MatrixIdLi3ELi3ELi0ELi3ELi3EEERKNSC_IdLi4ELi4ELi0ELi4ELi4EEERKNS3_20RGBDOdometryJacobianERKNS3_14OdometryOptionEE3$_0E14_M_get_pointerERKSt9_Any_data"(ptr noundef nonnull align 8 dereferenceable(16) %11) #8
  %13 = load ptr, ptr %7, align 8, !tbaa !79
  %14 = load ptr, ptr %8, align 8, !tbaa !1990
  %15 = load ptr, ptr %9, align 8, !tbaa !1992
  %16 = load ptr, ptr %10, align 8, !tbaa !1992
  call void @"_ZSt10__invoke_rIvRZN6open3d9pipelines8odometryL17DoSingleIterationEiiRKNS0_8geometry9RGBDImageES6_RKNS3_5ImageES6_S6_N5Eigen6MatrixIdLi3ELi3ELi0ELi3ELi3EEERKNSB_IdLi4ELi4ELi0ELi4ELi4EEERKNS2_20RGBDOdometryJacobianERKNS2_14OdometryOptionEE3$_0JiRSt6vectorINSB_IdLi6ELi1ELi0ELi6ELi1EEENSA_17aligned_allocatorISP_EEERSO_IdSaIdEESW_EENSt9enable_ifIX16is_invocable_r_vIT_T0_DpT1_EESY_E4typeEOSZ_DpOS10_"(ptr noundef nonnull align 8 dereferenceable(72) %12, ptr noundef nonnull align 4 dereferenceable(4) %13, ptr noundef nonnull align 8 dereferenceable(24) %14, ptr noundef nonnull align 8 dereferenceable(24) %15, ptr noundef nonnull align 8 dereferenceable(24) %16)
  ret void
}