; Function Attrs: mustprogress ssp uwtable
define internal void @"_ZNSt17_Function_handlerIFviRSt6vectorIN5Eigen6MatrixIdLi6ELi1ELi0ELi6ELi1EEENS1_17aligned_allocatorIS3_EEERS0_IdSaIdEESA_EZN6open3d9pipelines8odometryL17DoSingleIterationEiiRKNSC_8geometry9RGBDImageESI_RKNSF_5ImageESI_SI_NS2_IdLi3ELi3ELi0ELi3ELi3EEERKNS2_IdLi4ELi4ELi0ELi4ELi4EEERKNSE_20RGBDOdometryJacobianERKNSE_14OdometryOptionEE3$_0E9_M_invokeERKSt9_Any_dataOiS7_SA_SA_"(ptr noundef nonnull readonly align 8 captures(none) dereferenceable(16) %0, ptr noundef nonnull readonly align 4 captures(none) dereferenceable(4) %1, ptr noundef nonnull align 8 dereferenceable(24) %2, ptr noundef nonnull align 8 dereferenceable(24) %3, ptr noundef nonnull align 8 dereferenceable(24) %4) #2 align 2 {
  %.val = load ptr, ptr %0, align 8, !tbaa !150
  %.val5 = load i32, ptr %1, align 4, !tbaa !40
  %6 = load ptr, ptr %.val, align 8, !tbaa !767
  %7 = getelementptr inbounds nuw i8, ptr %.val, i64 8
  %8 = load ptr, ptr %7, align 8, !tbaa !769
  %9 = getelementptr inbounds nuw i8, ptr %.val, i64 16
  %10 = load ptr, ptr %9, align 8, !tbaa !770
  %11 = getelementptr inbounds nuw i8, ptr %.val, i64 24
  %12 = load ptr, ptr %11, align 8, !tbaa !771
  %13 = getelementptr inbounds nuw i8, ptr %.val, i64 32
  %14 = load ptr, ptr %13, align 8, !tbaa !772
  %15 = getelementptr inbounds nuw i8, ptr %.val, i64 40
  %16 = load ptr, ptr %15, align 8, !tbaa !773
  %17 = getelementptr inbounds nuw i8, ptr %.val, i64 48
  %18 = load ptr, ptr %17, align 8, !tbaa !774
  %19 = getelementptr inbounds nuw i8, ptr %.val, i64 56
  %20 = load ptr, ptr %19, align 8, !tbaa !775
  %21 = getelementptr inbounds nuw i8, ptr %.val, i64 64
  %22 = load ptr, ptr %21, align 8, !tbaa !776
  %23 = load ptr, ptr %6, align 8, !tbaa !25
  %24 = getelementptr inbounds nuw i8, ptr %23, i64 16
  %25 = load ptr, ptr %24, align 8
  tail call void %25(ptr noundef nonnull align 8 dereferenceable(8) %6, i32 noundef %.val5, ptr noundef nonnull align 8 dereferenceable(24) %2, ptr noundef nonnull align 8 dereferenceable(24) %3, ptr noundef nonnull align 8 dereferenceable(24) %4, ptr noundef nonnull align 8 dereferenceable(224) %8, ptr noundef nonnull align 8 dereferenceable(224) %10, ptr noundef nonnull align 8 dereferenceable(88) %12, ptr noundef nonnull align 8 dereferenceable(224) %14, ptr noundef nonnull align 8 dereferenceable(224) %16, ptr noundef nonnull align 8 dereferenceable(72) %18, ptr noundef nonnull align 16 dereferenceable(128) %20, ptr noundef nonnull align 8 dereferenceable(24) %22)
  ret void
}